target datalayout = "e-m:e-p270:32:32-p271:32:32-p272:64:64-i64:64-i128:128-f80:128-n8:16:32:64-S128"
target triple = "x86_64-pc-linux-gnu"

%class.Register = type { i32 }

@.str = private unnamed_addr constant [42 x i8] c"src/hotspot/cpu/x86/templateTable_x86.cpp\00", align 1
@_ZN13TemplateTable5_masmE = external global ptr, align 8
@.str.9 = private unnamed_addr constant [13 x i8] c"broken oop r\00", align 1
@PrintInterpreter = external global i8, align 1

; Function Attrs: mustprogress nounwind uwtable
define linkonce_odr hidden void @_ZN14MacroAssembler19_verify_oop_checkedE8RegisterPKcS2_i(ptr noundef nonnull align 8 dereferenceable(40) %0, i32 %1, ptr noundef %2, ptr noundef %3, i32 noundef %4) #1 comdat align 2 {
  %6 = alloca %class.Register, align 4
  %7 = alloca ptr, align 8
  %8 = alloca ptr, align 8
  %9 = alloca ptr, align 8
  %10 = alloca i32, align 4
  %11 = getelementptr inbounds %class.Register, ptr %6, i32 0, i32 0
  store i32 %1, ptr %11, align 4
  store ptr %0, ptr %7, align 8
  store ptr %2, ptr %8, align 8
  store ptr %3, ptr %9, align 8
  store i32 %4, ptr %10, align 4
  ret void
}

; Function Attrs: mustprogress nounwind uwtable
define linkonce_odr hidden noundef ptr @_ZN12Disassembler4hookI25InterpreterMacroAssemblerEEPT_PKciS3_(ptr noundef %0, i32 noundef %1, ptr noundef %2) #1 comdat align 2 {
  %4 = alloca ptr, align 8
  %5 = alloca i32, align 4
  %6 = alloca ptr, align 8
  store ptr %0, ptr %4, align 8
  store i32 %1, ptr %5, align 4
  store ptr %2, ptr %6, align 8
  %7 = load i8, ptr @PrintInterpreter, align 1
  %8 = trunc i8 %7 to i1
  br i1 %8, label %9, label %13

9:                                                ; preds = %3
  %10 = load ptr, ptr %4, align 8
  %11 = load i32, ptr %5, align 4
  %12 = load ptr, ptr %6, align 8
  call void @_ZN12Disassembler5_hookEPKciP14MacroAssembler(ptr noundef %10, i32 noundef %11, ptr noundef %12)
  br label %13

13:                                               ; preds = %9, %3
  %14 = load ptr, ptr %6, align 8
  ret ptr %14
}

; Function Attrs: mustprogress nounwind uwtable
define hidden void @_ZN13TemplateTable20pop_and_check_objectE8Register(i32 %0) #1 align 2 {
  %2 = alloca %class.Register, align 4
  %3 = alloca %class.Register, align 4
  %4 = alloca %class.Register, align 4
  %5 = alloca %class.Register, align 4
  %6 = getelementptr inbounds %class.Register, ptr %2, i32 0, i32 0
  store i32 %0, ptr %6, align 4
  %7 = load ptr, ptr @_ZN13TemplateTable5_masmE, align 8
  %8 = call noundef ptr @_ZN12Disassembler4hookI25InterpreterMacroAssemblerEEPT_PKciS3_(ptr noundef @.str, i32 noundef 2976, ptr noundef %7)
  call void @llvm.memcpy.p0.p0.i64(ptr align 4 %3, ptr align 4 %2, i64 4, i1 false)
  %9 = getelementptr inbounds %class.Register, ptr %3, i32 0, i32 0
  %10 = load i32, ptr %9, align 4
  call void @_ZN25InterpreterMacroAssembler7pop_ptrE8Register(ptr noundef nonnull align 8 dereferenceable(48) %8, i32 %10)
  %11 = load ptr, ptr @_ZN13TemplateTable5_masmE, align 8
  %12 = call noundef ptr @_ZN12Disassembler4hookI25InterpreterMacroAssemblerEEPT_PKciS3_(ptr noundef @.str, i32 noundef 2977, ptr noundef %11)
  call void @llvm.memcpy.p0.p0.i64(ptr align 4 %4, ptr align 4 %2, i64 4, i1 false)
  %13 = getelementptr inbounds %class.Register, ptr %4, i32 0, i32 0
  %14 = load i32, ptr %13, align 4
  call void @_ZN14MacroAssembler10null_checkE8Registeri(ptr noundef nonnull align 8 dereferenceable(40) %12, i32 %14, i32 noundef -1)
  %15 = load ptr, ptr @_ZN13TemplateTable5_masmE, align 8
  %16 = call noundef ptr @_ZN12Disassembler4hookI25InterpreterMacroAssemblerEEPT_PKciS3_(ptr noundef @.str, i32 noundef 2978, ptr noundef %15)
  call void @llvm.memcpy.p0.p0.i64(ptr align 4 %5, ptr align 4 %2, i64 4, i1 false)
  %17 = getelementptr inbounds %class.Register, ptr %5, i32 0, i32 0
  %18 = load i32, ptr %17, align 4
  call void @_ZN14MacroAssembler19_verify_oop_checkedE8RegisterPKcS2_i(ptr noundef nonnull align 8 dereferenceable(40) %16, i32 %18, ptr noundef @.str.9, ptr noundef @.str, i32 noundef 2978)
  ret void
}