; Function Attrs: mustprogress nounwind uwtable
define hidden void @_ZN13TemplateTable20pop_and_check_objectE8Register(i32 %0) local_unnamed_addr #0 align 2 {
  %2 = load ptr, ptr @_ZN13TemplateTable5_masmE, align 8
  %3 = load i8, ptr @PrintInterpreter, align 1
  %4 = trunc i8 %3 to i1
  br i1 %4, label %5, label %_ZN12Disassembler4hookI25InterpreterMacroAssemblerEEPT_PKciS3_.exit

5:                                                ; preds = %1
  tail call void @_ZN12Disassembler5_hookEPKciP14MacroAssembler(ptr noundef nonnull @.str, i32 noundef 2976, ptr noundef %2) #8
  br label %_ZN12Disassembler4hookI25InterpreterMacroAssemblerEEPT_PKciS3_.exit

_ZN12Disassembler4hookI25InterpreterMacroAssemblerEEPT_PKciS3_.exit: ; preds = %1, %5
  tail call void @_ZN25InterpreterMacroAssembler7pop_ptrE8Register(ptr noundef nonnull align 8 dereferenceable(48) %2, i32 %0) #8
  %6 = load ptr, ptr @_ZN13TemplateTable5_masmE, align 8
  %7 = load i8, ptr @PrintInterpreter, align 1
  %8 = trunc i8 %7 to i1
  br i1 %8, label %9, label %_ZN12Disassembler4hookI25InterpreterMacroAssemblerEEPT_PKciS3_.exit6

9:                                                ; preds = %_ZN12Disassembler4hookI25InterpreterMacroAssemblerEEPT_PKciS3_.exit
  tail call void @_ZN12Disassembler5_hookEPKciP14MacroAssembler(ptr noundef nonnull @.str, i32 noundef 2977, ptr noundef %6) #8
  br label %_ZN12Disassembler4hookI25InterpreterMacroAssemblerEEPT_PKciS3_.exit6

_ZN12Disassembler4hookI25InterpreterMacroAssemblerEEPT_PKciS3_.exit6: ; preds = %_ZN12Disassembler4hookI25InterpreterMacroAssemblerEEPT_PKciS3_.exit, %9
  tail call void @_ZN14MacroAssembler10null_checkE8Registeri(ptr noundef nonnull align 8 dereferenceable(40) %6, i32 %0, i32 noundef -1) #8
  %10 = load i8, ptr @PrintInterpreter, align 1
  %11 = trunc i8 %10 to i1
  br i1 %11, label %12, label %_ZN12Disassembler4hookI25InterpreterMacroAssemblerEEPT_PKciS3_.exit7

12:                                               ; preds = %_ZN12Disassembler4hookI25InterpreterMacroAssemblerEEPT_PKciS3_.exit6
  %13 = load ptr, ptr @_ZN13TemplateTable5_masmE, align 8
  tail call void @_ZN12Disassembler5_hookEPKciP14MacroAssembler(ptr noundef nonnull @.str, i32 noundef 2978, ptr noundef %13) #8
  br label %_ZN12Disassembler4hookI25InterpreterMacroAssemblerEEPT_PKciS3_.exit7

_ZN12Disassembler4hookI25InterpreterMacroAssemblerEEPT_PKciS3_.exit7: ; preds = %_ZN12Disassembler4hookI25InterpreterMacroAssemblerEEPT_PKciS3_.exit6, %12
  ret void
}